; ModuleID = 'bench/linux/original/drm_display_helper_mod.ll'
source_filename = "bench/linux/original/drm_display_helper_mod.ll"
target datalayout = "e-m:e-p270:32:32-p271:32:32-p272:64:64-i64:64-i128:128-f80:128-n8:16:32:64-S128"
target triple = "x86_64-unknown-linux-gnu"

module asm ".section\09\22.initcall6.init\22, \22a\22\09\09"
module asm "__initcall__kmod_drm_display_helper__306_21_drm_display_helper_module_init6:\09\09\09"
module asm ".long\09drm_display_helper_module_init - .\09"
module asm ".previous\09\09\09\09\09"

@__UNIQUE_ID_description303 = internal constant [58 x i8] c"drm_display_helper.description=DRM display adapter helper\00", section ".modinfo", align 1
@__UNIQUE_ID_file304 = internal constant [67 x i8] c"drm_display_helper.file=drivers/gpu/drm/display/drm_display_helper\00", section ".modinfo", align 1
@__UNIQUE_ID_license305 = internal constant [53 x i8] c"drm_display_helper.license=GPL and additional rights\00", section ".modinfo", align 1
@__UNIQUE_ID___addressable_drm_display_helper_module_init307 = internal global ptr @drm_display_helper_module_init, section ".discard.addressable", align 8
@__exitcall_drm_display_helper_module_exit = internal global ptr @drm_display_helper_module_exit, section ".exitcall.exit", align 8
@llvm.compiler.used = appending global [6 x ptr] [ptr @__UNIQUE_ID___addressable_drm_display_helper_module_init307, ptr @__UNIQUE_ID_description303, ptr @__UNIQUE_ID_file304, ptr @__UNIQUE_ID_license305, ptr @__exitcall_drm_display_helper_module_exit, ptr @drm_display_helper_module_exit], section "llvm.metadata"

; Function Attrs: cold fn_ret_thunk_extern mustprogress nofree norecurse nosync nounwind null_pointer_is_valid optsize willreturn memory(none)
define internal void @drm_display_helper_module_exit() #0 section ".exit.text" align 16 {
  ret void
}

; Function Attrs: cold fn_ret_thunk_extern mustprogress nofree norecurse nosync nounwind null_pointer_is_valid optsize willreturn memory(none)
define internal noundef i32 @drm_display_helper_module_init() #0 section ".init.text" align 16 {
  ret i32 0
}


!llvm.module.flags = !{!0, !1, !2, !3, !4}

!0 = !{i32 1, !"wchar_size", i32 2}
!1 = !{i32 8, !"cf-protection-branch", i32 1}
!2 = !{i32 4, !"function_return_thunk_extern", i32 1}
!3 = !{i32 4, !"indirect_branch_cs_prefix", i32 1}
!4 = !{i32 4, !"SkipRaxSetup", i32 1}
